(lp0
I12
aI18
aI20
aI24
aI30
aI36
aI40
aI42
aI48
aI54
aI56
aI60
aI66
aI70
aI72
aI78
aI80
aI84
aI88
aI90
aI96
aI100
aI102
aI104
aI108
aI112
aI114
aI120
aI126
aI132
aI138
aI140
aI144
aI150
aI156
aI160
aI162
aI168
aI174
aI176
aI180
aI186
aI192
aI196
aI198
aI200
aI204
aI208
aI210
aI216
aI220
aI222
aI224
aI228
aI234
aI240
aI246
aI252
aI258
aI260
aI264
aI270
aI272
aI276
aI280
aI282
aI288
aI294
aI300
aI304
aI306
aI308
aI312
aI318
aI320
aI324
aI330
aI336
aI340
aI342
aI348
aI350
aI352
aI354
aI360
aI364
aI366
aI368
aI372
aI378
aI380
aI384
aI390
aI392
aI396
aI400
aI402
aI408
aI414
aI416
aI420
aI426
aI432
aI438
aI440
aI444
aI448
aI450
aI456
aI460
aI462
aI464
aI468
aI474
aI476
aI480
aI486
aI490
aI492
aI498
aI500
aI504
aI510
aI516
aI520
aI522
aI528
aI532
aI534
aI540
aI544
aI546
aI550
aI552
aI558
aI560
aI564
aI570
aI572
aI576
aI580
aI582
aI588
aI594
aI600
aI606
aI608
aI612
aI616
aI618
aI620
aI624
aI630
aI636
aI640
aI642
aI644
aI648
aI650
aI654
aI660
aI666
aI672
aI678
aI680
aI684
aI690
aI696
aI700
aI702
aI704
aI708
aI714
aI720
aI726
aI728
aI732
aI736
aI738
aI740
aI744
aI748
aI750
aI756
aI760
aI762
aI768
aI770
aI774
aI780
aI784
aI786
aI792
aI798
aI800
aI804
aI810
aI812
aI816
aI820
aI822
aI828
aI832
aI834
aI836
aI840
aI846
aI852
aI858
aI860
aI864
aI868
aI870
aI876
aI880
aI882
aI888
aI894
aI896
aI900
aI906
aI910
aI912
aI918
aI920
aI924
aI928
aI930
aI936
aI940
aI942
aI945
aI948
aI952
aI954
aI960
aI966
aI968
aI972
aI978
aI980
aI984
aI990
aI992
aI996
aI1000
a.