(lp0
I24
aI30
aI32
aI36
aI42
aI48
aI52
aI54
aI60
aI62
aI66
aI68
aI72
aI78
aI82
aI84
aI90
aI92
aI96
aI100
aI102
aI108
aI112
aI36
aI38
aI42
aI48
aI54
aI58
aI60
aI66
aI68
aI72
aI74
aI78
aI84
aI88
aI90
aI96
aI98
aI102
aI106
aI108
aI114
aI118
aI40
aI44
aI50
aI56
aI60
aI62
aI68
aI70
aI74
aI76
aI80
aI86
aI90
aI92
aI98
aI100
aI104
aI108
aI110
aI116
aI120
aI48
aI54
aI60
aI64
aI66
aI72
aI74
aI78
aI80
aI84
aI90
aI94
aI96
aI102
aI104
aI108
aI112
aI114
aI120
aI124
aI60
aI66
aI70
aI72
aI78
aI80
aI84
aI86
aI90
aI96
aI100
aI102
aI108
aI110
aI114
aI118
aI120
aI126
aI130
aI72
aI76
aI78
aI84
aI86
aI90
aI92
aI96
aI102
aI106
aI108
aI114
aI116
aI120
aI124
aI126
aI132
aI136
aI80
aI82
aI88
aI90
aI94
aI96
aI100
aI106
aI110
aI112
aI118
aI120
aI124
aI128
aI130
aI136
aI140
aI84
aI90
aI92
aI96
aI98
aI102
aI108
aI112
aI114
aI120
aI122
aI126
aI130
aI132
aI138
aI142
aI96
aI98
aI102
aI104
aI108
aI114
aI118
aI120
aI126
aI128
aI132
aI136
aI138
aI144
aI148
aI100
aI104
aI106
aI110
aI116
aI120
aI122
aI128
aI130
aI134
aI138
aI140
aI146
aI150
aI108
aI110
aI114
aI120
aI124
aI126
aI132
aI134
aI138
aI142
aI144
aI150
aI154
aI112
aI116
aI122
aI126
aI128
aI134
aI136
aI140
aI144
aI146
aI152
aI156
aI120
aI126
aI130
aI132
aI138
aI140
aI144
aI148
aI150
aI156
aI160
aI132
aI136
aI138
aI144
aI146
aI150
aI154
aI156
aI162
aI166
aI140
aI142
aI148
aI150
aI154
aI158
aI160
aI166
aI170
aI144
aI150
aI152
aI156
aI160
aI162
aI168
aI172
aI156
aI158
aI162
aI166
aI168
aI174
aI178
aI160
aI164
aI168
aI170
aI176
aI180
aI168
aI172
aI174
aI180
aI184
aI176
aI178
aI184
aI188
aI180
aI186
aI190
aI192
aI196
aI200
a.